; Function Attrs: nounwind uwtable
define internal i32 @dissect_IPNIO_resp(ptr noundef %0, i32 noundef %1, ptr noundef %2, ptr noundef %3, ptr noundef %4, ptr noundef %5) #0 {
  %7 = alloca i16, align 2
  %8 = alloca i32, align 4
  %9 = alloca ptr, align 8
  %10 = tail call fastcc i32 @dissect_IPNIO_resp_header(ptr noundef %0, i32 noundef %1, ptr noundef %2, ptr noundef %3, ptr noundef %4, ptr noundef %5)
  call void @llvm.lifetime.start.p0(i64 2, ptr nonnull %7)
  call void @llvm.lifetime.start.p0(i64 4, ptr nonnull %8)
  call void @llvm.lifetime.start.p0(i64 8, ptr nonnull %9)
  store i16 0, ptr %7, align 2
  store ptr null, ptr %9, align 8
  %11 = tail call i32 @tvb_captured_length(ptr noundef %0) #11
  %12 = icmp ugt i32 %11, %10
  br i1 %12, label %.lr.ph.i, label %dissect_blocks.exit

.lr.ph.i:                                         ; preds = %6, %.lr.ph.i
  %.011.i = phi i32 [ %13, %.lr.ph.i ], [ %10, %6 ]
  %13 = call fastcc i32 @dissect_block(ptr noundef %0, i32 noundef %.011.i, ptr noundef %2, ptr noundef %3, ptr noundef %5, ptr noundef %7, ptr noundef %8, ptr noundef %9)
  %14 = load i16, ptr %7, align 2
  %15 = add i16 %14, 1
  store i16 %15, ptr %7, align 2
  %16 = call i32 @tvb_captured_length(ptr noundef %0) #11
  %17 = icmp ugt i32 %16, %13
  br i1 %17, label %.lr.ph.i, label %._crit_edge.i, !llvm.loop !4

._crit_edge.i:                                    ; preds = %.lr.ph.i
  %.pre.i = load ptr, ptr %9, align 8
  %.not.i = icmp eq ptr %.pre.i, null
  br i1 %.not.i, label %dissect_blocks.exit, label %18

18:                                               ; preds = %._crit_edge.i
  call fastcc void @pnio_ar_info(ptr noundef %0, ptr noundef %2, ptr noundef %3, ptr noundef %.pre.i)
  br label %dissect_blocks.exit

dissect_blocks.exit:                              ; preds = %6, %._crit_edge.i, %18
  %.0.lcssa14.i = phi i32 [ %13, %18 ], [ %13, %._crit_edge.i ], [ %10, %6 ]
  call void @llvm.lifetime.end.p0(i64 2, ptr nonnull %7)
  call void @llvm.lifetime.end.p0(i64 4, ptr nonnull %8)
  call void @llvm.lifetime.end.p0(i64 8, ptr nonnull %9)
  ret i32 %.0.lcssa14.i
}